; Function Attrs: nounwind uwtable
define hidden range(i32 0, 2) i32 @uv__iou_fs_open(ptr noundef %0, ptr noundef %1) local_unnamed_addr #0 {
  %3 = getelementptr inbounds nuw i8, ptr %0, i64 40
  %4 = load ptr, ptr %3, align 8
  %5 = getelementptr inbounds nuw i8, ptr %4, i64 320
  %6 = tail call fastcc ptr @uv__iou_get_sqe(ptr noundef nonnull %5, ptr noundef %0, ptr noundef %1)
  %7 = icmp eq ptr %6, null
  br i1 %7, label %uv__iou_submit.exit, label %8

8:                                                ; preds = %2
  %9 = getelementptr inbounds nuw i8, ptr %1, i64 104
  %10 = load ptr, ptr %9, align 8
  %11 = ptrtoint ptr %10 to i64
  %12 = getelementptr inbounds nuw i8, ptr %6, i64 16
  store i64 %11, ptr %12, align 8
  %13 = getelementptr inbounds nuw i8, ptr %6, i64 4
  store i32 -100, ptr %13, align 4
  %14 = getelementptr inbounds nuw i8, ptr %1, i64 288
  %15 = load i32, ptr %14, align 8
  %16 = getelementptr inbounds nuw i8, ptr %6, i64 24
  store i32 %15, ptr %16, align 8
  store i8 18, ptr %6, align 8
  %17 = getelementptr inbounds nuw i8, ptr %1, i64 284
  %18 = load i32, ptr %17, align 4
  %19 = or i32 %18, 524288
  %20 = getelementptr inbounds nuw i8, ptr %6, i64 28
  store i32 %19, ptr %20, align 4
  %21 = getelementptr inbounds nuw i8, ptr %4, i64 328
  %22 = load ptr, ptr %21, align 8
  %23 = load i32, ptr %22, align 4
  %24 = add i32 %23, 1
  store atomic i32 %24, ptr %22 release, align 4
  %25 = getelementptr inbounds nuw i8, ptr %4, i64 344
  %26 = load ptr, ptr %25, align 8
  %27 = load atomic i32, ptr %26 acquire, align 4
  %28 = and i32 %27, 1
  %.not.i = icmp eq i32 %28, 0
  br i1 %.not.i, label %uv__iou_submit.exit, label %29

29:                                               ; preds = %8
  %30 = getelementptr inbounds nuw i8, ptr %4, i64 432
  %31 = load i32, ptr %30, align 8
  %32 = tail call i64 (i64, ...) @syscall(i64 noundef 426, i32 noundef %31, i32 noundef 0, i32 noundef 0, i32 noundef 2, ptr noundef null, i64 noundef 0) #17
  %33 = and i64 %32, 4294967295
  %.not6.i = icmp eq i64 %33, 0
  br i1 %.not6.i, label %uv__iou_submit.exit, label %34

34:                                               ; preds = %29
  %35 = tail call ptr @__errno_location() #19
  %36 = load i32, ptr %35, align 4
  %.not7.i = icmp eq i32 %36, 130
  br i1 %.not7.i, label %uv__iou_submit.exit, label %37

37:                                               ; preds = %34
  tail call void @perror(ptr noundef nonnull @.str.25) #21
  br label %uv__iou_submit.exit

uv__iou_submit.exit:                              ; preds = %37, %34, %29, %8, %2
  %.0 = phi i32 [ 0, %2 ], [ 1, %8 ], [ 1, %29 ], [ 1, %34 ], [ 1, %37 ]
  ret i32 %.0
}